; Function Attrs: mustprogress nounwind uwtable
define dso_local noundef nonnull align 8 dereferenceable(48) ptr @_ZNK4llvm13DWARFVerifier4dumpERKNS_8DWARFDieEj(ptr noundef nonnull align 8 dereferenceable(242) %0, ptr noundef nonnull align 8 dereferenceable(16) %1, i32 noundef %2) local_unnamed_addr #0 align 2 {
  %4 = alloca %"struct.llvm::DIDumpOptions", align 8
  %5 = load ptr, ptr %0, align 8
  %6 = getelementptr inbounds nuw i8, ptr %0, i64 16
  call void @llvm.memcpy.p0.p0.i64(ptr noundef nonnull align 8 dereferenceable(25) %4, ptr noundef nonnull align 8 dereferenceable(25) %6, i64 25, i1 false)
  %7 = getelementptr inbounds nuw i8, ptr %4, i64 32
  %8 = getelementptr inbounds i8, ptr %0, i64 48
  call void @_ZNSt7__cxx1112basic_stringIcSt11char_traitsIcESaIcEEC1ERKS4_(ptr noundef nonnull align 8 dereferenceable(32) %7, ptr noundef nonnull align 8 dereferenceable(32) %8) #26
  %9 = getelementptr inbounds nuw i8, ptr %4, i64 64
  %10 = getelementptr inbounds i8, ptr %0, i64 96
  call void @llvm.memset.p0.i64(ptr noundef nonnull align 8 dereferenceable(32) %9, i8 0, i64 32, i1 false)
  %11 = load ptr, ptr %10, align 8
  %.not.i.i.not.i.i = icmp eq ptr %11, null
  br i1 %.not.i.i.not.i.i, label %_ZNSt8functionIFN4llvm9StringRefEmbEEC2ERKS3_.exit.i, label %12

12:                                               ; preds = %3
  %13 = getelementptr inbounds i8, ptr %0, i64 80
  %14 = getelementptr inbounds i8, ptr %4, i64 88
  %15 = getelementptr inbounds i8, ptr %4, i64 80
  %16 = call noundef zeroext i1 %11(ptr noundef nonnull align 8 dereferenceable(16) %9, ptr noundef nonnull align 8 dereferenceable(16) %13, i32 noundef 2) #26
  %17 = getelementptr inbounds i8, ptr %0, i64 104
  %18 = load ptr, ptr %17, align 8
  store ptr %18, ptr %14, align 8
  %19 = load ptr, ptr %10, align 8
  store ptr %19, ptr %15, align 8
  br label %_ZNSt8functionIFN4llvm9StringRefEmbEEC2ERKS3_.exit.i

_ZNSt8functionIFN4llvm9StringRefEmbEEC2ERKS3_.exit.i: ; preds = %12, %3
  %20 = getelementptr inbounds nuw i8, ptr %4, i64 96
  %21 = getelementptr inbounds i8, ptr %0, i64 128
  call void @llvm.memset.p0.i64(ptr noundef nonnull align 8 dereferenceable(32) %20, i8 0, i64 32, i1 false)
  %22 = load ptr, ptr %21, align 8
  %.not.i.i.not.i6.i = icmp eq ptr %22, null
  br i1 %.not.i.i.not.i6.i, label %_ZNSt8functionIFvN4llvm5ErrorEEEC2ERKS3_.exit.i, label %23

23:                                               ; preds = %_ZNSt8functionIFN4llvm9StringRefEmbEEC2ERKS3_.exit.i
  %24 = getelementptr inbounds i8, ptr %0, i64 112
  %25 = getelementptr inbounds i8, ptr %4, i64 120
  %26 = getelementptr inbounds i8, ptr %4, i64 112
  %27 = call noundef zeroext i1 %22(ptr noundef nonnull align 8 dereferenceable(16) %20, ptr noundef nonnull align 8 dereferenceable(16) %24, i32 noundef 2) #26
  %28 = getelementptr inbounds i8, ptr %0, i64 136
  %29 = load ptr, ptr %28, align 8
  store ptr %29, ptr %25, align 8
  %30 = load ptr, ptr %21, align 8
  store ptr %30, ptr %26, align 8
  br label %_ZNSt8functionIFvN4llvm5ErrorEEEC2ERKS3_.exit.i

_ZNSt8functionIFvN4llvm5ErrorEEEC2ERKS3_.exit.i:  ; preds = %23, %_ZNSt8functionIFN4llvm9StringRefEmbEEC2ERKS3_.exit.i
  %31 = getelementptr inbounds nuw i8, ptr %4, i64 128
  %32 = getelementptr inbounds i8, ptr %0, i64 160
  call void @llvm.memset.p0.i64(ptr noundef nonnull align 8 dereferenceable(32) %31, i8 0, i64 32, i1 false)
  %33 = load ptr, ptr %32, align 8
  %.not.i.i.not.i7.i = icmp eq ptr %33, null
  br i1 %.not.i.i.not.i7.i, label %_ZN4llvm13DIDumpOptionsC2ERKS0_.exit, label %34

34:                                               ; preds = %_ZNSt8functionIFvN4llvm5ErrorEEEC2ERKS3_.exit.i
  %35 = getelementptr inbounds i8, ptr %0, i64 144
  %36 = getelementptr inbounds i8, ptr %4, i64 152
  %37 = getelementptr inbounds i8, ptr %4, i64 144
  %38 = call noundef zeroext i1 %33(ptr noundef nonnull align 8 dereferenceable(16) %31, ptr noundef nonnull align 8 dereferenceable(16) %35, i32 noundef 2) #26
  %39 = getelementptr inbounds i8, ptr %0, i64 168
  %40 = load ptr, ptr %39, align 8
  store ptr %40, ptr %36, align 8
  %41 = load ptr, ptr %32, align 8
  store ptr %41, ptr %37, align 8
  br label %_ZN4llvm13DIDumpOptionsC2ERKS0_.exit

_ZN4llvm13DIDumpOptionsC2ERKS0_.exit:             ; preds = %_ZNSt8functionIFvN4llvm5ErrorEEEC2ERKS3_.exit.i, %34
  call void @_ZNK4llvm8DWARFDie4dumpERNS_11raw_ostreamEjNS_13DIDumpOptionsE(ptr noundef nonnull align 8 dereferenceable(16) %1, ptr noundef nonnull align 8 dereferenceable(48) %5, i32 noundef %2, ptr noundef nonnull %4) #26
  %42 = getelementptr inbounds i8, ptr %4, i64 144
  %43 = load ptr, ptr %42, align 8
  %.not.i.i.i = icmp eq ptr %43, null
  br i1 %.not.i.i.i, label %_ZNSt8functionIFvN4llvm5ErrorEEED2Ev.exit.i, label %44

44:                                               ; preds = %_ZN4llvm13DIDumpOptionsC2ERKS0_.exit
  %45 = call noundef zeroext i1 %43(ptr noundef nonnull align 8 dereferenceable(16) %31, ptr noundef nonnull align 8 dereferenceable(16) %31, i32 noundef 3) #26
  br label %_ZNSt8functionIFvN4llvm5ErrorEEED2Ev.exit.i

_ZNSt8functionIFvN4llvm5ErrorEEED2Ev.exit.i:      ; preds = %44, %_ZN4llvm13DIDumpOptionsC2ERKS0_.exit
  %46 = getelementptr inbounds i8, ptr %4, i64 112
  %47 = load ptr, ptr %46, align 8
  %.not.i.i1.i = icmp eq ptr %47, null
  br i1 %.not.i.i1.i, label %_ZNSt8functionIFvN4llvm5ErrorEEED2Ev.exit2.i, label %48

48:                                               ; preds = %_ZNSt8functionIFvN4llvm5ErrorEEED2Ev.exit.i
  %49 = call noundef zeroext i1 %47(ptr noundef nonnull align 8 dereferenceable(16) %20, ptr noundef nonnull align 8 dereferenceable(16) %20, i32 noundef 3) #26
  br label %_ZNSt8functionIFvN4llvm5ErrorEEED2Ev.exit2.i

_ZNSt8functionIFvN4llvm5ErrorEEED2Ev.exit2.i:     ; preds = %48, %_ZNSt8functionIFvN4llvm5ErrorEEED2Ev.exit.i
  %50 = getelementptr inbounds i8, ptr %4, i64 80
  %51 = load ptr, ptr %50, align 8
  %.not.i.i3.i = icmp eq ptr %51, null
  br i1 %.not.i.i3.i, label %_ZN4llvm13DIDumpOptionsD2Ev.exit, label %52

52:                                               ; preds = %_ZNSt8functionIFvN4llvm5ErrorEEED2Ev.exit2.i
  %53 = call noundef zeroext i1 %51(ptr noundef nonnull align 8 dereferenceable(16) %9, ptr noundef nonnull align 8 dereferenceable(16) %9, i32 noundef 3) #26
  br label %_ZN4llvm13DIDumpOptionsD2Ev.exit

_ZN4llvm13DIDumpOptionsD2Ev.exit:                 ; preds = %_ZNSt8functionIFvN4llvm5ErrorEEED2Ev.exit2.i, %52
  call void @_ZNSt7__cxx1112basic_stringIcSt11char_traitsIcESaIcEED1Ev(ptr noundef nonnull align 8 dereferenceable(32) %7) #26
  %54 = load ptr, ptr %0, align 8
  ret ptr %54
}